; Function Attrs: nounwind uwtable
define void @Ifd_ManHashInsert(ptr noundef readonly captures(none) %0, i32 noundef %1, i32 noundef %2, i32 noundef %3, i32 noundef %4, i32 noundef %5) local_unnamed_addr #5 {
  %7 = getelementptr inbounds nuw i8, ptr %0, i64 16
  %8 = load ptr, ptr %7, align 8, !tbaa !23
  %9 = getelementptr inbounds nuw i8, ptr %8, i64 4
  %10 = load i32, ptr %9, align 4, !tbaa !18
  %11 = load i32, ptr %8, align 8, !tbaa !21
  %12 = icmp eq i32 %10, %11
  br i1 %12, label %13, label %.Vec_IntGrow.exit10_crit_edge.i

.Vec_IntGrow.exit10_crit_edge.i:                  ; preds = %6
  %.phi.trans.insert.i = getelementptr inbounds nuw i8, ptr %8, i64 8
  %.pre.i = load ptr, ptr %.phi.trans.insert.i, align 8, !tbaa !22
  br label %Vec_IntPush.exit

13:                                               ; preds = %6
  %14 = icmp slt i32 %10, 16
  br i1 %14, label %15, label %23

15:                                               ; preds = %13
  %16 = getelementptr inbounds nuw i8, ptr %8, i64 8
  %17 = load ptr, ptr %16, align 8, !tbaa !22
  %.not9.i.i = icmp eq ptr %17, null
  br i1 %.not9.i.i, label %20, label %18

18:                                               ; preds = %15
  %19 = tail call dereferenceable_or_null(64) ptr @realloc(ptr noundef nonnull %17, i64 noundef 64) #29
  br label %Vec_IntGrow.exit.i

20:                                               ; preds = %15
  %21 = tail call noalias dereferenceable_or_null(64) ptr @malloc(i64 noundef 64) #27
  br label %Vec_IntGrow.exit.i

Vec_IntGrow.exit.i:                               ; preds = %20, %18
  %22 = phi ptr [ %19, %18 ], [ %21, %20 ]
  store ptr %22, ptr %16, align 8, !tbaa !22
  store i32 16, ptr %8, align 8, !tbaa !21
  br label %Vec_IntPush.exit

23:                                               ; preds = %13
  %24 = shl nuw nsw i32 %10, 1
  %25 = getelementptr inbounds nuw i8, ptr %8, i64 8
  %26 = load ptr, ptr %25, align 8, !tbaa !22
  %.not9.i9.i = icmp eq ptr %26, null
  %27 = zext nneg i32 %24 to i64
  %28 = shl nuw nsw i64 %27, 2
  br i1 %.not9.i9.i, label %31, label %29

29:                                               ; preds = %23
  %30 = tail call ptr @realloc(ptr noundef nonnull %26, i64 noundef %28) #29
  br label %33

31:                                               ; preds = %23
  %32 = tail call noalias ptr @malloc(i64 noundef %28) #27
  br label %33

33:                                               ; preds = %31, %29
  %34 = phi ptr [ %30, %29 ], [ %32, %31 ]
  store ptr %34, ptr %25, align 8, !tbaa !22
  store i32 %24, ptr %8, align 8, !tbaa !21
  br label %Vec_IntPush.exit

Vec_IntPush.exit:                                 ; preds = %.Vec_IntGrow.exit10_crit_edge.i, %Vec_IntGrow.exit.i, %33
  %35 = phi ptr [ %.pre.i, %.Vec_IntGrow.exit10_crit_edge.i ], [ %34, %33 ], [ %22, %Vec_IntGrow.exit.i ]
  %36 = load i32, ptr %9, align 4, !tbaa !18
  %37 = add nsw i32 %36, 1
  store i32 %37, ptr %9, align 4, !tbaa !18
  %38 = sext i32 %36 to i64
  %39 = getelementptr inbounds i32, ptr %35, i64 %38
  store i32 %1, ptr %39, align 4, !tbaa !37
  %40 = load ptr, ptr %7, align 8, !tbaa !23
  %41 = getelementptr inbounds nuw i8, ptr %40, i64 4
  %42 = load i32, ptr %41, align 4, !tbaa !18
  %43 = load i32, ptr %40, align 8, !tbaa !21
  %44 = icmp eq i32 %42, %43
  br i1 %44, label %45, label %.Vec_IntGrow.exit10_crit_edge.i11

.Vec_IntGrow.exit10_crit_edge.i11:                ; preds = %Vec_IntPush.exit
  %.phi.trans.insert.i12 = getelementptr inbounds nuw i8, ptr %40, i64 8
  %.pre.i13 = load ptr, ptr %.phi.trans.insert.i12, align 8, !tbaa !22
  br label %Vec_IntPush.exit17

45:                                               ; preds = %Vec_IntPush.exit
  %46 = icmp slt i32 %42, 16
  br i1 %46, label %47, label %55

47:                                               ; preds = %45
  %48 = getelementptr inbounds nuw i8, ptr %40, i64 8
  %49 = load ptr, ptr %48, align 8, !tbaa !22
  %.not9.i.i15 = icmp eq ptr %49, null
  br i1 %.not9.i.i15, label %52, label %50

50:                                               ; preds = %47
  %51 = tail call dereferenceable_or_null(64) ptr @realloc(ptr noundef nonnull %49, i64 noundef 64) #29
  br label %Vec_IntGrow.exit.i16

52:                                               ; preds = %47
  %53 = tail call noalias dereferenceable_or_null(64) ptr @malloc(i64 noundef 64) #27
  br label %Vec_IntGrow.exit.i16

Vec_IntGrow.exit.i16:                             ; preds = %52, %50
  %54 = phi ptr [ %51, %50 ], [ %53, %52 ]
  store ptr %54, ptr %48, align 8, !tbaa !22
  store i32 16, ptr %40, align 8, !tbaa !21
  br label %Vec_IntPush.exit17

55:                                               ; preds = %45
  %56 = shl nuw nsw i32 %42, 1
  %57 = getelementptr inbounds nuw i8, ptr %40, i64 8
  %58 = load ptr, ptr %57, align 8, !tbaa !22
  %.not9.i9.i14 = icmp eq ptr %58, null
  %59 = zext nneg i32 %56 to i64
  %60 = shl nuw nsw i64 %59, 2
  br i1 %.not9.i9.i14, label %63, label %61

61:                                               ; preds = %55
  %62 = tail call ptr @realloc(ptr noundef nonnull %58, i64 noundef %60) #29
  br label %65

63:                                               ; preds = %55
  %64 = tail call noalias ptr @malloc(i64 noundef %60) #27
  br label %65

65:                                               ; preds = %63, %61
  %66 = phi ptr [ %62, %61 ], [ %64, %63 ]
  store ptr %66, ptr %57, align 8, !tbaa !22
  store i32 %56, ptr %40, align 8, !tbaa !21
  br label %Vec_IntPush.exit17

Vec_IntPush.exit17:                               ; preds = %.Vec_IntGrow.exit10_crit_edge.i11, %Vec_IntGrow.exit.i16, %65
  %67 = phi ptr [ %.pre.i13, %.Vec_IntGrow.exit10_crit_edge.i11 ], [ %66, %65 ], [ %54, %Vec_IntGrow.exit.i16 ]
  %68 = load i32, ptr %41, align 4, !tbaa !18
  %69 = add nsw i32 %68, 1
  store i32 %69, ptr %41, align 4, !tbaa !18
  %70 = sext i32 %68 to i64
  %71 = getelementptr inbounds i32, ptr %67, i64 %70
  store i32 %2, ptr %71, align 4, !tbaa !37
  %72 = load ptr, ptr %7, align 8, !tbaa !23
  %73 = getelementptr inbounds nuw i8, ptr %72, i64 4
  %74 = load i32, ptr %73, align 4, !tbaa !18
  %75 = load i32, ptr %72, align 8, !tbaa !21
  %76 = icmp eq i32 %74, %75
  br i1 %76, label %77, label %.Vec_IntGrow.exit10_crit_edge.i18

.Vec_IntGrow.exit10_crit_edge.i18:                ; preds = %Vec_IntPush.exit17
  %.phi.trans.insert.i19 = getelementptr inbounds nuw i8, ptr %72, i64 8
  %.pre.i20 = load ptr, ptr %.phi.trans.insert.i19, align 8, !tbaa !22
  br label %Vec_IntPush.exit24

77:                                               ; preds = %Vec_IntPush.exit17
  %78 = icmp slt i32 %74, 16
  br i1 %78, label %79, label %87

79:                                               ; preds = %77
  %80 = getelementptr inbounds nuw i8, ptr %72, i64 8
  %81 = load ptr, ptr %80, align 8, !tbaa !22
  %.not9.i.i22 = icmp eq ptr %81, null
  br i1 %.not9.i.i22, label %84, label %82

82:                                               ; preds = %79
  %83 = tail call dereferenceable_or_null(64) ptr @realloc(ptr noundef nonnull %81, i64 noundef 64) #29
  br label %Vec_IntGrow.exit.i23

84:                                               ; preds = %79
  %85 = tail call noalias dereferenceable_or_null(64) ptr @malloc(i64 noundef 64) #27
  br label %Vec_IntGrow.exit.i23

Vec_IntGrow.exit.i23:                             ; preds = %84, %82
  %86 = phi ptr [ %83, %82 ], [ %85, %84 ]
  store ptr %86, ptr %80, align 8, !tbaa !22
  store i32 16, ptr %72, align 8, !tbaa !21
  br label %Vec_IntPush.exit24

87:                                               ; preds = %77
  %88 = shl nuw nsw i32 %74, 1
  %89 = getelementptr inbounds nuw i8, ptr %72, i64 8
  %90 = load ptr, ptr %89, align 8, !tbaa !22
  %.not9.i9.i21 = icmp eq ptr %90, null
  %91 = zext nneg i32 %88 to i64
  %92 = shl nuw nsw i64 %91, 2
  br i1 %.not9.i9.i21, label %95, label %93

93:                                               ; preds = %87
  %94 = tail call ptr @realloc(ptr noundef nonnull %90, i64 noundef %92) #29
  br label %97

95:                                               ; preds = %87
  %96 = tail call noalias ptr @malloc(i64 noundef %92) #27
  br label %97

97:                                               ; preds = %95, %93
  %98 = phi ptr [ %94, %93 ], [ %96, %95 ]
  store ptr %98, ptr %89, align 8, !tbaa !22
  store i32 %88, ptr %72, align 8, !tbaa !21
  br label %Vec_IntPush.exit24

Vec_IntPush.exit24:                               ; preds = %.Vec_IntGrow.exit10_crit_edge.i18, %Vec_IntGrow.exit.i23, %97
  %99 = phi ptr [ %.pre.i20, %.Vec_IntGrow.exit10_crit_edge.i18 ], [ %98, %97 ], [ %86, %Vec_IntGrow.exit.i23 ]
  %100 = load i32, ptr %73, align 4, !tbaa !18
  %101 = add nsw i32 %100, 1
  store i32 %101, ptr %73, align 4, !tbaa !18
  %102 = sext i32 %100 to i64
  %103 = getelementptr inbounds i32, ptr %99, i64 %102
  store i32 %3, ptr %103, align 4, !tbaa !37
  %104 = load ptr, ptr %7, align 8, !tbaa !23
  %105 = getelementptr inbounds nuw i8, ptr %104, i64 4
  %106 = load i32, ptr %105, align 4, !tbaa !18
  %107 = load i32, ptr %104, align 8, !tbaa !21
  %108 = icmp eq i32 %106, %107
  br i1 %108, label %109, label %.Vec_IntGrow.exit10_crit_edge.i25

.Vec_IntGrow.exit10_crit_edge.i25:                ; preds = %Vec_IntPush.exit24
  %.phi.trans.insert.i26 = getelementptr inbounds nuw i8, ptr %104, i64 8
  %.pre.i27 = load ptr, ptr %.phi.trans.insert.i26, align 8, !tbaa !22
  br label %Vec_IntPush.exit31

109:                                              ; preds = %Vec_IntPush.exit24
  %110 = icmp slt i32 %106, 16
  br i1 %110, label %111, label %119

111:                                              ; preds = %109
  %112 = getelementptr inbounds nuw i8, ptr %104, i64 8
  %113 = load ptr, ptr %112, align 8, !tbaa !22
  %.not9.i.i29 = icmp eq ptr %113, null
  br i1 %.not9.i.i29, label %116, label %114

114:                                              ; preds = %111
  %115 = tail call dereferenceable_or_null(64) ptr @realloc(ptr noundef nonnull %113, i64 noundef 64) #29
  br label %Vec_IntGrow.exit.i30

116:                                              ; preds = %111
  %117 = tail call noalias dereferenceable_or_null(64) ptr @malloc(i64 noundef 64) #27
  br label %Vec_IntGrow.exit.i30

Vec_IntGrow.exit.i30:                             ; preds = %116, %114
  %118 = phi ptr [ %115, %114 ], [ %117, %116 ]
  store ptr %118, ptr %112, align 8, !tbaa !22
  store i32 16, ptr %104, align 8, !tbaa !21
  br label %Vec_IntPush.exit31

119:                                              ; preds = %109
  %120 = shl nuw nsw i32 %106, 1
  %121 = getelementptr inbounds nuw i8, ptr %104, i64 8
  %122 = load ptr, ptr %121, align 8, !tbaa !22
  %.not9.i9.i28 = icmp eq ptr %122, null
  %123 = zext nneg i32 %120 to i64
  %124 = shl nuw nsw i64 %123, 2
  br i1 %.not9.i9.i28, label %127, label %125

125:                                              ; preds = %119
  %126 = tail call ptr @realloc(ptr noundef nonnull %122, i64 noundef %124) #29
  br label %129

127:                                              ; preds = %119
  %128 = tail call noalias ptr @malloc(i64 noundef %124) #27
  br label %129

129:                                              ; preds = %127, %125
  %130 = phi ptr [ %126, %125 ], [ %128, %127 ]
  store ptr %130, ptr %121, align 8, !tbaa !22
  store i32 %120, ptr %104, align 8, !tbaa !21
  br label %Vec_IntPush.exit31

Vec_IntPush.exit31:                               ; preds = %.Vec_IntGrow.exit10_crit_edge.i25, %Vec_IntGrow.exit.i30, %129
  %131 = phi ptr [ %.pre.i27, %.Vec_IntGrow.exit10_crit_edge.i25 ], [ %130, %129 ], [ %118, %Vec_IntGrow.exit.i30 ]
  %132 = load i32, ptr %105, align 4, !tbaa !18
  %133 = add nsw i32 %132, 1
  store i32 %133, ptr %105, align 4, !tbaa !18
  %134 = sext i32 %132 to i64
  %135 = getelementptr inbounds i32, ptr %131, i64 %134
  store i32 %4, ptr %135, align 4, !tbaa !37
  %136 = getelementptr inbounds nuw i8, ptr %0, i64 32
  %137 = load ptr, ptr %136, align 8, !tbaa !35
  %138 = getelementptr inbounds nuw i8, ptr %0, i64 24
  %139 = load ptr, ptr %138, align 8, !tbaa !24
  %140 = getelementptr i8, ptr %139, i64 4
  %.val = load i32, ptr %140, align 4, !tbaa !18
  %141 = tail call fastcc i32 @Hsh_IntManAdd(ptr noundef %137, i32 noundef %.val)
  %142 = load ptr, ptr %138, align 8, !tbaa !24
  %143 = getelementptr inbounds nuw i8, ptr %142, i64 4
  %144 = load i32, ptr %143, align 4, !tbaa !18
  %145 = load i32, ptr %142, align 8, !tbaa !21
  %146 = icmp eq i32 %144, %145
  br i1 %146, label %147, label %.Vec_IntGrow.exit10_crit_edge.i32

.Vec_IntGrow.exit10_crit_edge.i32:                ; preds = %Vec_IntPush.exit31
  %.phi.trans.insert.i33 = getelementptr inbounds nuw i8, ptr %142, i64 8
  %.pre.i34 = load ptr, ptr %.phi.trans.insert.i33, align 8, !tbaa !22
  br label %Vec_IntPush.exit38

147:                                              ; preds = %Vec_IntPush.exit31
  %148 = icmp slt i32 %144, 16
  br i1 %148, label %149, label %157

149:                                              ; preds = %147
  %150 = getelementptr inbounds nuw i8, ptr %142, i64 8
  %151 = load ptr, ptr %150, align 8, !tbaa !22
  %.not9.i.i36 = icmp eq ptr %151, null
  br i1 %.not9.i.i36, label %154, label %152

152:                                              ; preds = %149
  %153 = tail call dereferenceable_or_null(64) ptr @realloc(ptr noundef nonnull %151, i64 noundef 64) #29
  br label %Vec_IntGrow.exit.i37

154:                                              ; preds = %149
  %155 = tail call noalias dereferenceable_or_null(64) ptr @malloc(i64 noundef 64) #27
  br label %Vec_IntGrow.exit.i37

Vec_IntGrow.exit.i37:                             ; preds = %154, %152
  %156 = phi ptr [ %153, %152 ], [ %155, %154 ]
  store ptr %156, ptr %150, align 8, !tbaa !22
  store i32 16, ptr %142, align 8, !tbaa !21
  br label %Vec_IntPush.exit38

157:                                              ; preds = %147
  %158 = shl nuw nsw i32 %144, 1
  %159 = getelementptr inbounds nuw i8, ptr %142, i64 8
  %160 = load ptr, ptr %159, align 8, !tbaa !22
  %.not9.i9.i35 = icmp eq ptr %160, null
  %161 = zext nneg i32 %158 to i64
  %162 = shl nuw nsw i64 %161, 2
  br i1 %.not9.i9.i35, label %165, label %163

163:                                              ; preds = %157
  %164 = tail call ptr @realloc(ptr noundef nonnull %160, i64 noundef %162) #29
  br label %167

165:                                              ; preds = %157
  %166 = tail call noalias ptr @malloc(i64 noundef %162) #27
  br label %167

167:                                              ; preds = %165, %163
  %168 = phi ptr [ %164, %163 ], [ %166, %165 ]
  store ptr %168, ptr %159, align 8, !tbaa !22
  store i32 %158, ptr %142, align 8, !tbaa !21
  br label %Vec_IntPush.exit38

Vec_IntPush.exit38:                               ; preds = %.Vec_IntGrow.exit10_crit_edge.i32, %Vec_IntGrow.exit.i37, %167
  %169 = phi ptr [ %.pre.i34, %.Vec_IntGrow.exit10_crit_edge.i32 ], [ %168, %167 ], [ %156, %Vec_IntGrow.exit.i37 ]
  %170 = load i32, ptr %143, align 4, !tbaa !18
  %171 = add nsw i32 %170, 1
  store i32 %171, ptr %143, align 4, !tbaa !18
  %172 = sext i32 %170 to i64
  %173 = getelementptr inbounds i32, ptr %169, i64 %172
  store i32 %5, ptr %173, align 4, !tbaa !37
  ret void
}